; Function Attrs: mustprogress nounwind uwtable
define dso_local noundef zeroext i1 @_ZNK4llvm16X86FrameLowering17has128ByteRedZoneERKNS_15MachineFunctionE(ptr nocapture noundef nonnull readonly align 8 dereferenceable(60) %0, ptr nocapture noundef nonnull readonly align 8 dereferenceable(1041) %1) local_unnamed_addr #2 align 2 {
  %3 = load ptr, ptr %1, align 8
  %4 = getelementptr inbounds nuw i8, ptr %0, i64 24
  %5 = load ptr, ptr %4, align 8
  %6 = getelementptr inbounds nuw i8, ptr %3, i64 2
  %7 = load i16, ptr %6, align 2
  %8 = lshr i16 %7, 4
  %9 = and i16 %8, 1023
  %10 = zext nneg i16 %9 to i32
  %11 = tail call noundef zeroext i1 @_ZNK4llvm12X86Subtarget18isCallingConvWin64Ej(ptr noundef nonnull align 8 dereferenceable(409248) %5, i32 noundef %10)
  %12 = getelementptr inbounds nuw i8, ptr %0, i64 52
  %13 = load i8, ptr %12, align 4
  %14 = trunc i8 %13 to i1
  %.not = xor i1 %14, true
  %brmerge = or i1 %11, %.not
  br i1 %brmerge, label %18, label %15

15:                                               ; preds = %2
  %16 = tail call noundef zeroext i1 @_ZNK4llvm8Function14hasFnAttributeENS_9Attribute8AttrKindE(ptr noundef nonnull align 8 dereferenceable(136) %3, i32 noundef 33) #23
  %17 = xor i1 %16, true
  br label %18

18:                                               ; preds = %2, %15
  %19 = phi i1 [ false, %2 ], [ %17, %15 ]
  ret i1 %19
}